target datalayout = "e-m:e-p270:32:32-p271:32:32-p272:64:64-i64:64-i128:128-f80:128-n8:16:32:64-S128"
target triple = "x86_64-pc-linux-gnu"

; Function Attrs: nounwind uwtable
define internal zeroext i1 @is_ascii_alpha_numeric(i8 noundef signext %0) #0 {
  %2 = alloca i8, align 1
  store i8 %0, ptr %2, align 1, !tbaa !9
  %3 = load i8, ptr %2, align 1, !tbaa !9
  %4 = sext i8 %3 to i32
  %5 = icmp sge i32 %4, 48
  br i1 %5, label %6, label %10

6:                                                ; preds = %1
  %7 = load i8, ptr %2, align 1, !tbaa !9
  %8 = sext i8 %7 to i32
  %9 = icmp sle i32 %8, 57
  br i1 %9, label %28, label %10

10:                                               ; preds = %6, %1
  %11 = load i8, ptr %2, align 1, !tbaa !9
  %12 = sext i8 %11 to i32
  %13 = icmp sge i32 %12, 97
  br i1 %13, label %14, label %18

14:                                               ; preds = %10
  %15 = load i8, ptr %2, align 1, !tbaa !9
  %16 = sext i8 %15 to i32
  %17 = icmp sle i32 %16, 122
  br i1 %17, label %28, label %18

18:                                               ; preds = %14, %10
  %19 = load i8, ptr %2, align 1, !tbaa !9
  %20 = sext i8 %19 to i32
  %21 = icmp sge i32 %20, 65
  br i1 %21, label %22, label %26

22:                                               ; preds = %18
  %23 = load i8, ptr %2, align 1, !tbaa !9
  %24 = sext i8 %23 to i32
  %25 = icmp sle i32 %24, 90
  br label %26

26:                                               ; preds = %22, %18
  %27 = phi i1 [ false, %18 ], [ %25, %22 ]
  br label %28

28:                                               ; preds = %26, %14, %6
  %29 = phi i1 [ true, %14 ], [ true, %6 ], [ %27, %26 ]
  ret i1 %29
}

; Function Attrs: nounwind uwtable
define internal zeroext i1 @is_http_token(i8 noundef signext %0) #0 {
  %2 = alloca i8, align 1
  store i8 %0, ptr %2, align 1, !tbaa !9
  %3 = load i8, ptr %2, align 1, !tbaa !9
  %4 = sext i8 %3 to i32
  %5 = icmp eq i32 %4, 33
  br i1 %5, label %53, label %6

6:                                                ; preds = %1
  %7 = load i8, ptr %2, align 1, !tbaa !9
  %8 = sext i8 %7 to i32
  %9 = icmp sge i32 %8, 35
  br i1 %9, label %10, label %14

10:                                               ; preds = %6
  %11 = load i8, ptr %2, align 1, !tbaa !9
  %12 = sext i8 %11 to i32
  %13 = icmp sle i32 %12, 39
  br i1 %13, label %53, label %14

14:                                               ; preds = %10, %6
  %15 = load i8, ptr %2, align 1, !tbaa !9
  %16 = sext i8 %15 to i32
  %17 = icmp eq i32 %16, 42
  br i1 %17, label %53, label %18

18:                                               ; preds = %14
  %19 = load i8, ptr %2, align 1, !tbaa !9
  %20 = sext i8 %19 to i32
  %21 = icmp eq i32 %20, 43
  br i1 %21, label %53, label %22

22:                                               ; preds = %18
  %23 = load i8, ptr %2, align 1, !tbaa !9
  %24 = sext i8 %23 to i32
  %25 = icmp eq i32 %24, 45
  br i1 %25, label %53, label %26

26:                                               ; preds = %22
  %27 = load i8, ptr %2, align 1, !tbaa !9
  %28 = sext i8 %27 to i32
  %29 = icmp eq i32 %28, 46
  br i1 %29, label %53, label %30

30:                                               ; preds = %26
  %31 = load i8, ptr %2, align 1, !tbaa !9
  %32 = sext i8 %31 to i32
  %33 = icmp eq i32 %32, 94
  br i1 %33, label %53, label %34

34:                                               ; preds = %30
  %35 = load i8, ptr %2, align 1, !tbaa !9
  %36 = sext i8 %35 to i32
  %37 = icmp eq i32 %36, 95
  br i1 %37, label %53, label %38

38:                                               ; preds = %34
  %39 = load i8, ptr %2, align 1, !tbaa !9
  %40 = sext i8 %39 to i32
  %41 = icmp eq i32 %40, 96
  br i1 %41, label %53, label %42

42:                                               ; preds = %38
  %43 = load i8, ptr %2, align 1, !tbaa !9
  %44 = sext i8 %43 to i32
  %45 = icmp eq i32 %44, 124
  br i1 %45, label %53, label %46

46:                                               ; preds = %42
  %47 = load i8, ptr %2, align 1, !tbaa !9
  %48 = sext i8 %47 to i32
  %49 = icmp eq i32 %48, 126
  br i1 %49, label %53, label %50

50:                                               ; preds = %46
  %51 = load i8, ptr %2, align 1, !tbaa !9
  %52 = call zeroext i1 @is_ascii_alpha_numeric(i8 noundef signext %51)
  br label %53

53:                                               ; preds = %50, %46, %42, %38, %34, %30, %26, %22, %18, %14, %10, %1
  %54 = phi i1 [ true, %46 ], [ true, %42 ], [ true, %38 ], [ true, %34 ], [ true, %30 ], [ true, %26 ], [ true, %22 ], [ true, %18 ], [ true, %14 ], [ true, %10 ], [ true, %1 ], [ %52, %50 ]
  ret i1 %54
}

; Function Attrs: nounwind uwtable
define internal zeroext i1 @is_empty_string_or_does_not_solely_contain_http_token_code_points(ptr noundef %0, i64 noundef %1) #0 {
  %3 = alloca i1, align 1
  %4 = alloca ptr, align 8
  %5 = alloca i64, align 8
  store ptr %0, ptr %4, align 8, !tbaa !4
  store i64 %1, ptr %5, align 8, !tbaa !10
  %6 = load i64, ptr %5, align 8, !tbaa !10
  %7 = icmp eq i64 %6, 0
  br i1 %7, label %8, label %9

8:                                                ; preds = %2
  store i1 true, ptr %3, align 1
  br label %24

9:                                                ; preds = %2
  br label %10

10:                                               ; preds = %18, %9
  %11 = load i64, ptr %5, align 8, !tbaa !10
  %12 = icmp ugt i64 %11, 0
  br i1 %12, label %13, label %23

13:                                               ; preds = %10
  %14 = load ptr, ptr %4, align 8, !tbaa !4
  %15 = load i8, ptr %14, align 1, !tbaa !9
  %16 = call zeroext i1 @is_http_token(i8 noundef signext %15)
  br i1 %16, label %18, label %17

17:                                               ; preds = %13
  store i1 true, ptr %3, align 1
  br label %24

18:                                               ; preds = %13
  %19 = load i64, ptr %5, align 8, !tbaa !10
  %20 = add i64 %19, -1
  store i64 %20, ptr %5, align 8, !tbaa !10
  %21 = load ptr, ptr %4, align 8, !tbaa !4
  %22 = getelementptr inbounds nuw i8, ptr %21, i32 1
  store ptr %22, ptr %4, align 8, !tbaa !4
  br label %10

23:                                               ; preds = %10
  store i1 false, ptr %3, align 1
  br label %24

24:                                               ; preds = %23, %17, %8
  %25 = load i1, ptr %3, align 1
  ret i1 %25
}