; Function Attrs: nofree norecurse nosync nounwind memory(argmem: read) uwtable
define internal fastcc noundef zeroext i1 @is_empty_string_or_does_not_solely_contain_http_token_code_points(ptr noundef readonly captures(none) %0, i64 noundef %1) unnamed_addr #2 {
  %3 = icmp eq i64 %1, 0
  br i1 %3, label %.loopexit, label %.preheader

.preheader:                                       ; preds = %2, %is_http_token.exit.thread
  %.010 = phi i64 [ %10, %is_http_token.exit.thread ], [ %1, %2 ]
  %.059 = phi ptr [ %11, %is_http_token.exit.thread ], [ %0, %2 ]
  %4 = load i8, ptr %.059, align 1, !tbaa !4
  switch i8 %4, label %5 [
    i8 33, label %is_http_token.exit.thread
    i8 126, label %is_http_token.exit.thread
    i8 124, label %is_http_token.exit.thread
    i8 96, label %is_http_token.exit.thread
    i8 95, label %is_http_token.exit.thread
    i8 94, label %is_http_token.exit.thread
    i8 46, label %is_http_token.exit.thread
    i8 45, label %is_http_token.exit.thread
    i8 43, label %is_http_token.exit.thread
    i8 42, label %is_http_token.exit.thread
    i8 39, label %is_http_token.exit.thread
    i8 38, label %is_http_token.exit.thread
    i8 37, label %is_http_token.exit.thread
    i8 36, label %is_http_token.exit.thread
    i8 35, label %is_http_token.exit.thread
  ]

5:                                                ; preds = %.preheader
  %6 = add i8 %4, -48
  %or.cond.i.i = icmp ult i8 %6, 10
  %7 = and i8 %4, -33
  %8 = add i8 %7, -65
  %9 = icmp ult i8 %8, 26
  %or.cond = or i1 %or.cond.i.i, %9
  br i1 %or.cond, label %is_http_token.exit.thread, label %.loopexit

is_http_token.exit.thread:                        ; preds = %5, %.preheader, %.preheader, %.preheader, %.preheader, %.preheader, %.preheader, %.preheader, %.preheader, %.preheader, %.preheader, %.preheader, %.preheader, %.preheader, %.preheader, %.preheader
  %10 = add i64 %.010, -1
  %11 = getelementptr inbounds nuw i8, ptr %.059, i64 1
  %.not = icmp eq i64 %10, 0
  br i1 %.not, label %.loopexit, label %.preheader

.loopexit:                                        ; preds = %5, %is_http_token.exit.thread, %2
  %.06 = phi i1 [ true, %2 ], [ true, %5 ], [ false, %is_http_token.exit.thread ]
  ret i1 %.06
}